target datalayout = "e-m:e-p270:32:32-p271:32:32-p272:64:64-i64:64-i128:128-f80:128-n8:16:32:64-S128"
target triple = "x86_64-pc-linux-gnu"

%struct.evws_connection = type { %struct.anon, ptr, ptr, ptr, ptr, ptr, ptr, ptr, i8 }
%struct.anon = type { ptr, ptr }

@__const.evws_close.fr = private unnamed_addr constant [4 x i8] c"\88\02\00\00", align 1

; Function Attrs: inlinehint nounwind uwtable
define internal zeroext i16 @__bswap_16(i16 noundef zeroext %0) #4 {
  %2 = alloca i16, align 2
  store i16 %0, ptr %2, align 2
  %3 = load i16, ptr %2, align 2
  %4 = zext i16 %3 to i32
  %5 = ashr i32 %4, 8
  %6 = and i32 %5, 255
  %7 = load i16, ptr %2, align 2
  %8 = zext i16 %7 to i32
  %9 = and i32 %8, 255
  %10 = shl i32 %9, 8
  %11 = or i32 %6, %10
  %12 = trunc i32 %11 to i16
  ret i16 %12
}

; Function Attrs: nounwind uwtable
define void @evws_close(ptr noundef %0, i16 noundef zeroext %1) #0 {
  %3 = alloca ptr, align 8
  %4 = alloca i16, align 2
  %5 = alloca [4 x i8], align 1
  %6 = alloca ptr, align 8
  %7 = alloca ptr, align 8
  %8 = alloca i32, align 4
  store ptr %0, ptr %3, align 8
  store i16 %1, ptr %4, align 2
  call void @llvm.lifetime.start.p0(i64 4, ptr %5) #8
  call void @llvm.memcpy.p0.p0.i64(ptr align 1 %5, ptr align 1 @__const.evws_close.fr, i64 4, i1 false)
  call void @llvm.lifetime.start.p0(i64 8, ptr %6) #8
  call void @llvm.lifetime.start.p0(i64 8, ptr %7) #8
  %9 = load ptr, ptr %3, align 8
  %10 = getelementptr inbounds nuw %struct.evws_connection, ptr %9, i32 0, i32 8
  %11 = load i8, ptr %10, align 8, !range !3, !noundef !4
  %12 = trunc i8 %11 to i1
  br i1 %12, label %13, label %14

13:                                               ; preds = %2
  store i32 1, ptr %8, align 4
  br label %32

14:                                               ; preds = %2
  %15 = load ptr, ptr %3, align 8
  %16 = getelementptr inbounds nuw %struct.evws_connection, ptr %15, i32 0, i32 8
  store i8 1, ptr %16, align 8
  %17 = getelementptr inbounds [4 x i8], ptr %5, i64 0, i64 2
  store ptr %17, ptr %7, align 8
  %18 = load i16, ptr %4, align 2
  %19 = call zeroext i16 @__bswap_16(i16 noundef zeroext %18)
  %20 = load ptr, ptr %7, align 8
  store i16 %19, ptr %20, align 2
  %21 = load ptr, ptr %3, align 8
  %22 = getelementptr inbounds nuw %struct.evws_connection, ptr %21, i32 0, i32 1
  %23 = load ptr, ptr %22, align 8
  %24 = call ptr @bufferevent_get_output(ptr noundef %23)
  store ptr %24, ptr %6, align 8
  %25 = load ptr, ptr %6, align 8
  %26 = getelementptr inbounds [4 x i8], ptr %5, i64 0, i64 0
  %27 = call i32 @evbuffer_add(ptr noundef %25, ptr noundef %26, i64 noundef 4)
  %28 = load ptr, ptr %3, align 8
  %29 = getelementptr inbounds nuw %struct.evws_connection, ptr %28, i32 0, i32 1
  %30 = load ptr, ptr %29, align 8
  %31 = load ptr, ptr %3, align 8
  call void @bufferevent_setcb(ptr noundef %30, ptr noundef null, ptr noundef @close_after_write_cb, ptr noundef @close_event_cb, ptr noundef %31)
  store i32 0, ptr %8, align 4
  br label %32

32:                                               ; preds = %14, %13
  call void @llvm.lifetime.end.p0(i64 8, ptr %7) #8
  call void @llvm.lifetime.end.p0(i64 8, ptr %6) #8
  call void @llvm.lifetime.end.p0(i64 4, ptr %5) #8
  %33 = load i32, ptr %8, align 4
  switch i32 %33, label %35 [
    i32 0, label %34
    i32 1, label %34
  ]

34:                                               ; preds = %32, %32
  ret void

35:                                               ; preds = %32
  unreachable
}