; Function Attrs: nounwind uwtable
define void @evws_close(ptr noundef %0, i16 noundef zeroext %1) local_unnamed_addr #0 {
  %3 = alloca [4 x i8], align 4
  call void @llvm.lifetime.start.p0(i64 4, ptr nonnull %3) #9
  store i32 648, ptr %3, align 4
  %4 = getelementptr inbounds nuw i8, ptr %0, i64 72
  %5 = load i8, ptr %4, align 8, !range !3, !noundef !4
  %6 = trunc nuw i8 %5 to i1
  br i1 %6, label %14, label %7

7:                                                ; preds = %2
  store i8 1, ptr %4, align 8
  %8 = getelementptr inbounds nuw i8, ptr %3, i64 2
  %rev.i = tail call noundef i16 @llvm.bswap.i16(i16 %1)
  store i16 %rev.i, ptr %8, align 2
  %9 = getelementptr inbounds nuw i8, ptr %0, i64 16
  %10 = load ptr, ptr %9, align 8
  %11 = tail call ptr @bufferevent_get_output(ptr noundef %10) #9
  %12 = call i32 @evbuffer_add(ptr noundef %11, ptr noundef nonnull %3, i64 noundef 4) #9
  %13 = load ptr, ptr %9, align 8
  call void @bufferevent_setcb(ptr noundef %13, ptr noundef null, ptr noundef nonnull @close_after_write_cb, ptr noundef nonnull @close_event_cb, ptr noundef nonnull %0) #9
  br label %14

14:                                               ; preds = %2, %7
  call void @llvm.lifetime.end.p0(i64 4, ptr nonnull %3) #9
  ret void
}